target datalayout = "e-m:e-p270:32:32-p271:32:32-p272:64:64-i64:64-i128:128-f80:128-n8:16:32:64-S128"
target triple = "x86_64-pc-linux-gnu"

%"class.folly::File" = type <{ i32, i8, [3 x i8] }>
%"struct.folly::MemoryMapping::Options" = type { i64, i8, i8, i8, i8, i8, ptr }

; Function Attrs: mustprogress uwtable
define void @_ZN5folly13MemoryMappingC2EillNS0_7OptionsE(ptr noundef nonnull align 8 dereferenceable(72) %0, i32 noundef %1, i64 noundef %2, i64 noundef %3, ptr noundef byval(%"struct.folly::MemoryMapping::Options") align 8 %4) unnamed_addr #5 align 2 personality ptr @__gxx_personality_v0 {
  %6 = alloca ptr, align 8
  %7 = alloca i32, align 4
  %8 = alloca i64, align 8
  %9 = alloca i64, align 8
  %10 = alloca %"class.folly::File", align 4
  %11 = alloca %"struct.folly::MemoryMapping::Options", align 8
  %12 = alloca ptr, align 8
  %13 = alloca i32, align 4
  store ptr %0, ptr %6, align 8, !tbaa !25
  store i32 %1, ptr %7, align 4, !tbaa !72
  store i64 %2, ptr %8, align 8, !tbaa !22
  store i64 %3, ptr %9, align 8, !tbaa !22
  %14 = load ptr, ptr %6, align 8
  %15 = load i32, ptr %7, align 4, !tbaa !72
  call void @_ZN5folly4FileC1Eib(ptr noundef nonnull align 4 dereferenceable(5) %10, i32 noundef %15, i1 noundef zeroext false) #17
  %16 = load i64, ptr %8, align 8, !tbaa !22
  %17 = load i64, ptr %9, align 8, !tbaa !22
  call void @llvm.memcpy.p0.p0.i64(ptr align 8 %11, ptr align 8 %4, i64 24, i1 false), !tbaa.struct !53
  invoke void @_ZN5folly13MemoryMappingC2ENS_4FileEllNS0_7OptionsE(ptr noundef nonnull align 8 dereferenceable(72) %14, ptr noundef %10, i64 noundef %16, i64 noundef %17, ptr noundef byval(%"struct.folly::MemoryMapping::Options") align 8 %11)
          to label %18 unwind label %19

18:                                               ; preds = %5
  call void @_ZN5folly4FileD1Ev(ptr noundef nonnull align 4 dereferenceable(5) %10) #17
  ret void

19:                                               ; preds = %5
  %20 = landingpad { ptr, i32 }
          cleanup
  %21 = extractvalue { ptr, i32 } %20, 0
  store ptr %21, ptr %12, align 8
  %22 = extractvalue { ptr, i32 } %20, 1
  store i32 %22, ptr %13, align 4
  call void @_ZN5folly4FileD1Ev(ptr noundef nonnull align 4 dereferenceable(5) %10) #17
  br label %23

23:                                               ; preds = %19
  %24 = load ptr, ptr %12, align 8
  %25 = load i32, ptr %13, align 4
  %26 = insertvalue { ptr, i32 } poison, ptr %24, 0
  %27 = insertvalue { ptr, i32 } %26, i32 %25, 1
  resume { ptr, i32 } %27
}