; Function Attrs: mustprogress uwtable
define void @_ZN5folly13MemoryMappingC2EillNS0_7OptionsE(ptr noundef nonnull align 8 dereferenceable(72) %0, i32 noundef %1, i64 noundef %2, i64 noundef %3, ptr noundef readonly byval(%"struct.folly::MemoryMapping::Options") align 8 captures(none) %4) unnamed_addr #7 align 2 personality ptr @__gxx_personality_v0 {
  %6 = alloca %"class.folly::File", align 4
  call void @_ZN5folly4FileC1Eib(ptr noundef nonnull align 4 dereferenceable(5) %6, i32 noundef %1, i1 noundef zeroext false) #20
  invoke void @_ZN5folly13MemoryMappingC2ENS_4FileEllNS0_7OptionsE(ptr noundef nonnull align 8 dereferenceable(72) %0, ptr noundef nonnull %6, i64 noundef %2, i64 noundef %3, ptr noundef nonnull byval(%"struct.folly::MemoryMapping::Options") align 8 %4)
          to label %7 unwind label %8

7:                                                ; preds = %5
  call void @_ZN5folly4FileD1Ev(ptr noundef nonnull align 4 dereferenceable(5) %6) #20
  ret void

8:                                                ; preds = %5
  %9 = landingpad { ptr, i32 }
          cleanup
  call void @_ZN5folly4FileD1Ev(ptr noundef nonnull align 4 dereferenceable(5) %6) #20
  resume { ptr, i32 } %9
}